target datalayout = "e-m:e-p270:32:32-p271:32:32-p272:64:64-i64:64-i128:128-f80:128-n8:16:32:64-S128"
target triple = "x86_64-pc-linux-gnu"

%struct.PyVarObject = type { %struct._object, i64 }
%struct._object = type { %union.anon, ptr }
%union.anon = type { i64 }
%union._Py_CODEUNIT = type { i16 }
%struct.anon.0 = type { i8, i8 }
%struct.PyCodeObject = type { %struct.PyVarObject, ptr, ptr, ptr, i32, i32, i32, i32, i32, i32, i32, i32, i32, i32, i32, i32, ptr, ptr, ptr, ptr, ptr, ptr, ptr, ptr, ptr, i64, ptr, i64, i32, ptr, [1 x i8] }
%struct._PyExecutorArray = type { i32, i32, [1 x ptr] }
%struct._PyExecutorObject = type { %struct.PyVarObject, ptr, %struct._PyVMData, i32, i32, i64, ptr, ptr, [1 x %struct._PyExitData] }
%struct._PyVMData = type { i8, i8, i8, i8, i32, %struct._PyBloomFilter, %struct._PyExecutorLinkListNode, ptr }
%struct._PyBloomFilter = type { [8 x i32] }
%struct._PyExecutorLinkListNode = type { ptr, ptr }
%struct._PyExitData = type { i32, %struct._Py_BackoffCounter, ptr }
%struct._Py_BackoffCounter = type { i16 }
%struct._PyCoMonitoringData = type { %struct._Py_LocalMonitors, %struct._Py_LocalMonitors, ptr, [8 x i64], ptr, ptr, ptr, ptr }
%struct._Py_LocalMonitors = type { [11 x i8] }
%struct._PyCoLineInstrumentationData = type { i8, [1 x i8] }

@_PyOpcode_Deopt = external constant [256 x i8], align 16

; Function Attrs: inlinehint nounwind uwtable
define internal zeroext i8 @get_original_opcode(ptr noundef %0, i32 noundef %1) #2 {
  %3 = alloca ptr, align 8
  %4 = alloca i32, align 4
  store ptr %0, ptr %3, align 8, !tbaa !12
  store i32 %1, ptr %4, align 4, !tbaa !9
  %5 = load ptr, ptr %3, align 8, !tbaa !12
  %6 = getelementptr inbounds nuw %struct._PyCoLineInstrumentationData, ptr %5, i32 0, i32 1
  %7 = load i32, ptr %4, align 4, !tbaa !9
  %8 = load ptr, ptr %3, align 8, !tbaa !12
  %9 = getelementptr inbounds nuw %struct._PyCoLineInstrumentationData, ptr %8, i32 0, i32 0
  %10 = load i8, ptr %9, align 1, !tbaa !37
  %11 = zext i8 %10 to i32
  %12 = mul i32 %7, %11
  %13 = sext i32 %12 to i64
  %14 = getelementptr [1 x i8], ptr %6, i64 0, i64 %13
  %15 = load i8, ptr %14, align 1, !tbaa !11
  ret i8 %15
}

; Function Attrs: nounwind uwtable
define hidden i16 @_Py_GetBaseCodeUnit(ptr noundef %0, i32 noundef %1) #0 {
  %3 = alloca %union._Py_CODEUNIT, align 2
  %4 = alloca ptr, align 8
  %5 = alloca i32, align 4
  %6 = alloca ptr, align 8
  %7 = alloca i32, align 4
  %8 = alloca i32, align 4
  %9 = alloca ptr, align 8
  %10 = alloca i32, align 4
  store ptr %0, ptr %4, align 8, !tbaa !4
  store i32 %1, ptr %5, align 4, !tbaa !9
  call void @llvm.lifetime.start.p0(i64 8, ptr %6) #8
  %11 = load ptr, ptr %4, align 8, !tbaa !4
  %12 = getelementptr inbounds nuw %struct.PyCodeObject, ptr %11, i32 0, i32 30
  %13 = getelementptr inbounds [1 x i8], ptr %12, i64 0, i64 0
  %14 = load i32, ptr %5, align 4, !tbaa !9
  %15 = sext i32 %14 to i64
  %16 = getelementptr %union._Py_CODEUNIT, ptr %13, i64 %15
  store ptr %16, ptr %6, align 8, !tbaa !12
  %17 = load ptr, ptr %6, align 8, !tbaa !12
  %18 = load i16, ptr %17, align 2, !tbaa !13
  store i16 %18, ptr %3, align 2, !tbaa !11
  call void @llvm.lifetime.start.p0(i64 4, ptr %7) #8
  %19 = getelementptr inbounds nuw %struct.anon.0, ptr %3, i32 0, i32 0
  %20 = load i8, ptr %19, align 2, !tbaa !11
  %21 = zext i8 %20 to i32
  store i32 %21, ptr %7, align 4, !tbaa !9
  %22 = load i32, ptr %7, align 4, !tbaa !9
  %23 = icmp slt i32 %22, 235
  br i1 %23, label %24, label %30

24:                                               ; preds = %2
  %25 = load i32, ptr %7, align 4, !tbaa !9
  %26 = sext i32 %25 to i64
  %27 = getelementptr [256 x i8], ptr @_PyOpcode_Deopt, i64 0, i64 %26
  %28 = load i8, ptr %27, align 1, !tbaa !11
  %29 = getelementptr inbounds nuw %struct.anon.0, ptr %3, i32 0, i32 0
  store i8 %28, ptr %29, align 2, !tbaa !11
  store i32 1, ptr %8, align 4
  br label %104

30:                                               ; preds = %2
  %31 = load i32, ptr %7, align 4, !tbaa !9
  %32 = icmp eq i32 %31, 255
  br i1 %32, label %33, label %59

33:                                               ; preds = %30
  call void @llvm.lifetime.start.p0(i64 8, ptr %9) #8
  %34 = load ptr, ptr %4, align 8, !tbaa !4
  %35 = getelementptr inbounds nuw %struct.PyCodeObject, ptr %34, i32 0, i32 23
  %36 = load ptr, ptr %35, align 8, !tbaa !15
  %37 = getelementptr inbounds nuw %struct._PyExecutorArray, ptr %36, i32 0, i32 2
  %38 = getelementptr inbounds nuw %struct.anon.0, ptr %3, i32 0, i32 1
  %39 = load i8, ptr %38, align 1, !tbaa !11
  %40 = zext i8 %39 to i64
  %41 = getelementptr [1 x ptr], ptr %37, i64 0, i64 %40
  %42 = load ptr, ptr %41, align 8, !tbaa !22
  store ptr %42, ptr %9, align 8, !tbaa !22
  %43 = load ptr, ptr %9, align 8, !tbaa !22
  %44 = getelementptr inbounds nuw %struct._PyExecutorObject, ptr %43, i32 0, i32 2
  %45 = getelementptr inbounds nuw %struct._PyVMData, ptr %44, i32 0, i32 0
  %46 = load i8, ptr %45, align 8, !tbaa !24
  %47 = zext i8 %46 to i64
  %48 = getelementptr [256 x i8], ptr @_PyOpcode_Deopt, i64 0, i64 %47
  %49 = load i8, ptr %48, align 1, !tbaa !11
  %50 = zext i8 %49 to i32
  store i32 %50, ptr %7, align 4, !tbaa !9
  %51 = load i32, ptr %7, align 4, !tbaa !9
  %52 = trunc i32 %51 to i8
  %53 = getelementptr inbounds nuw %struct.anon.0, ptr %3, i32 0, i32 0
  store i8 %52, ptr %53, align 2, !tbaa !11
  %54 = load ptr, ptr %9, align 8, !tbaa !22
  %55 = getelementptr inbounds nuw %struct._PyExecutorObject, ptr %54, i32 0, i32 2
  %56 = getelementptr inbounds nuw %struct._PyVMData, ptr %55, i32 0, i32 1
  %57 = load i8, ptr %56, align 1, !tbaa !30
  %58 = getelementptr inbounds nuw %struct.anon.0, ptr %3, i32 0, i32 1
  store i8 %57, ptr %58, align 1, !tbaa !11
  store i32 1, ptr %8, align 4
  call void @llvm.lifetime.end.p0(i64 8, ptr %9) #8
  br label %104

59:                                               ; preds = %30
  %60 = load i32, ptr %7, align 4, !tbaa !9
  %61 = icmp eq i32 %60, 254
  br i1 %61, label %62, label %71

62:                                               ; preds = %59
  %63 = load ptr, ptr %4, align 8, !tbaa !4
  %64 = getelementptr inbounds nuw %struct.PyCodeObject, ptr %63, i32 0, i32 26
  %65 = load ptr, ptr %64, align 8, !tbaa !31
  %66 = getelementptr inbounds nuw %struct._PyCoMonitoringData, ptr %65, i32 0, i32 4
  %67 = load ptr, ptr %66, align 8, !tbaa !32
  %68 = load i32, ptr %5, align 4, !tbaa !9
  %69 = call zeroext i8 @get_original_opcode(ptr noundef %67, i32 noundef %68)
  %70 = zext i8 %69 to i32
  store i32 %70, ptr %7, align 4, !tbaa !9
  br label %71

71:                                               ; preds = %62, %59
  %72 = load i32, ptr %7, align 4, !tbaa !9
  %73 = icmp eq i32 %72, 239
  br i1 %73, label %74, label %85

74:                                               ; preds = %71
  %75 = load ptr, ptr %4, align 8, !tbaa !4
  %76 = getelementptr inbounds nuw %struct.PyCodeObject, ptr %75, i32 0, i32 26
  %77 = load ptr, ptr %76, align 8, !tbaa !31
  %78 = getelementptr inbounds nuw %struct._PyCoMonitoringData, ptr %77, i32 0, i32 6
  %79 = load ptr, ptr %78, align 8, !tbaa !36
  %80 = load i32, ptr %5, align 4, !tbaa !9
  %81 = sext i32 %80 to i64
  %82 = getelementptr i8, ptr %79, i64 %81
  %83 = load i8, ptr %82, align 1, !tbaa !11
  %84 = zext i8 %83 to i32
  store i32 %84, ptr %7, align 4, !tbaa !9
  br label %85

85:                                               ; preds = %74, %71
  call void @llvm.lifetime.start.p0(i64 4, ptr %10) #8
  %86 = load i32, ptr %7, align 4, !tbaa !9
  %87 = sext i32 %86 to i64
  %88 = getelementptr [256 x i8], ptr @DE_INSTRUMENT, i64 0, i64 %87
  %89 = load i8, ptr %88, align 1, !tbaa !11
  %90 = zext i8 %89 to i32
  store i32 %90, ptr %10, align 4, !tbaa !9
  %91 = load i32, ptr %10, align 4, !tbaa !9
  %92 = icmp ne i32 %91, 0
  br i1 %92, label %93, label %97

93:                                               ; preds = %85
  %94 = load i32, ptr %10, align 4, !tbaa !9
  %95 = trunc i32 %94 to i8
  %96 = getelementptr inbounds nuw %struct.anon.0, ptr %3, i32 0, i32 0
  store i8 %95, ptr %96, align 2, !tbaa !11
  br label %103

97:                                               ; preds = %85
  %98 = load i32, ptr %7, align 4, !tbaa !9
  %99 = sext i32 %98 to i64
  %100 = getelementptr [256 x i8], ptr @_PyOpcode_Deopt, i64 0, i64 %99
  %101 = load i8, ptr %100, align 1, !tbaa !11
  %102 = getelementptr inbounds nuw %struct.anon.0, ptr %3, i32 0, i32 0
  store i8 %101, ptr %102, align 2, !tbaa !11
  br label %103

103:                                              ; preds = %97, %93
  store i32 1, ptr %8, align 4
  call void @llvm.lifetime.end.p0(i64 4, ptr %10) #8
  br label %104

104:                                              ; preds = %103, %33, %24
  call void @llvm.lifetime.end.p0(i64 4, ptr %7) #8
  call void @llvm.lifetime.end.p0(i64 8, ptr %6) #8
  %105 = getelementptr inbounds nuw %union._Py_CODEUNIT, ptr %3, i32 0, i32 0
  %106 = load i16, ptr %105, align 2
  ret i16 %106
}