; Function Attrs: mustprogress nofree norecurse nosync nounwind willreturn memory(read, inaccessiblemem: none) uwtable
define hidden i16 @_Py_GetBaseCodeUnit(ptr noundef readonly captures(none) %0, i32 noundef %1) local_unnamed_addr #0 {
  %3 = getelementptr inbounds nuw i8, ptr %0, i64 208
  %4 = sext i32 %1 to i64
  %5 = getelementptr %union._Py_CODEUNIT, ptr %3, i64 %4
  %6 = load i16, ptr %5, align 2, !tbaa !4
  %.sroa.7.0.extract.shift = lshr i16 %6, 8
  %.sroa.7.0.extract.trunc = trunc nuw i16 %.sroa.7.0.extract.shift to i8
  %7 = and i16 %6, 255
  %8 = icmp samesign ult i16 %7, 235
  br i1 %8, label %9, label %13

9:                                                ; preds = %2
  %10 = zext nneg i16 %7 to i64
  %11 = getelementptr [256 x i8], ptr @_PyOpcode_Deopt, i64 0, i64 %10
  %12 = load i8, ptr %11, align 1, !tbaa !33
  br label %59

13:                                               ; preds = %2
  %14 = zext nneg i16 %7 to i32
  %trunc = trunc i16 %6 to i8
  switch i8 %trunc, label %42 [
    i8 -1, label %15
    i8 -2, label %29
  ]

15:                                               ; preds = %13
  %16 = getelementptr inbounds nuw i8, ptr %0, i64 152
  %17 = load ptr, ptr %16, align 8, !tbaa !8
  %18 = getelementptr inbounds nuw i8, ptr %17, i64 8
  %19 = zext nneg i16 %.sroa.7.0.extract.shift to i64
  %20 = getelementptr [1 x ptr], ptr %18, i64 0, i64 %19
  %21 = load ptr, ptr %20, align 8, !tbaa !17
  %22 = getelementptr inbounds nuw i8, ptr %21, i64 32
  %23 = load i8, ptr %22, align 8, !tbaa !19
  %24 = zext i8 %23 to i64
  %25 = getelementptr [256 x i8], ptr @_PyOpcode_Deopt, i64 0, i64 %24
  %26 = load i8, ptr %25, align 1, !tbaa !33
  %27 = getelementptr inbounds nuw i8, ptr %21, i64 33
  %28 = load i8, ptr %27, align 1, !tbaa !35
  br label %59

29:                                               ; preds = %13
  %30 = getelementptr inbounds nuw i8, ptr %0, i64 176
  %31 = load ptr, ptr %30, align 8, !tbaa !26
  %32 = getelementptr inbounds nuw i8, ptr %31, i64 96
  %33 = load ptr, ptr %32, align 8, !tbaa !27
  %34 = getelementptr inbounds nuw i8, ptr %33, i64 1
  %35 = load i8, ptr %33, align 1, !tbaa !31
  %36 = zext i8 %35 to i32
  %37 = mul i32 %1, %36
  %38 = sext i32 %37 to i64
  %39 = getelementptr [1 x i8], ptr %34, i64 0, i64 %38
  %40 = load i8, ptr %39, align 1, !tbaa !33
  %41 = zext i8 %40 to i32
  br label %42

42:                                               ; preds = %13, %29
  %.0 = phi i32 [ %41, %29 ], [ %14, %13 ]
  %43 = icmp eq i32 %.0, 239
  br i1 %43, label %44, label %52

44:                                               ; preds = %42
  %45 = getelementptr inbounds nuw i8, ptr %0, i64 176
  %46 = load ptr, ptr %45, align 8, !tbaa !26
  %47 = getelementptr inbounds nuw i8, ptr %46, i64 112
  %48 = load ptr, ptr %47, align 8, !tbaa !34
  %49 = getelementptr i8, ptr %48, i64 %4
  %50 = load i8, ptr %49, align 1, !tbaa !33
  %51 = zext i8 %50 to i32
  br label %52

52:                                               ; preds = %44, %42
  %.1 = phi i32 [ %51, %44 ], [ %.0, %42 ]
  %53 = zext nneg i32 %.1 to i64
  %54 = getelementptr [256 x i8], ptr @DE_INSTRUMENT, i64 0, i64 %53
  %55 = load i8, ptr %54, align 1, !tbaa !33
  %.not = icmp eq i8 %55, 0
  br i1 %.not, label %56, label %59

56:                                               ; preds = %52
  %57 = getelementptr [256 x i8], ptr @_PyOpcode_Deopt, i64 0, i64 %53
  %58 = load i8, ptr %57, align 1, !tbaa !33
  br label %59

59:                                               ; preds = %56, %52, %15, %9
  %.sroa.0.0 = phi i8 [ %12, %9 ], [ %26, %15 ], [ %58, %56 ], [ %55, %52 ]
  %.sroa.7.0 = phi i8 [ %.sroa.7.0.extract.trunc, %9 ], [ %28, %15 ], [ %.sroa.7.0.extract.trunc, %56 ], [ %.sroa.7.0.extract.trunc, %52 ]
  %.sroa.7.0.insert.ext = zext i8 %.sroa.7.0 to i16
  %.sroa.7.0.insert.shift = shl nuw i16 %.sroa.7.0.insert.ext, 8
  %.sroa.0.0.insert.ext = zext i8 %.sroa.0.0 to i16
  %.sroa.0.0.insert.insert = or disjoint i16 %.sroa.7.0.insert.shift, %.sroa.0.0.insert.ext
  ret i16 %.sroa.0.0.insert.insert
}